; Function Attrs: mustprogress uwtable
define void @_ZN7rocksdb17BaseDeltaIterator12AdvanceDeltaEv(ptr noundef nonnull readonly align 8 captures(none) dereferenceable(200) %0) local_unnamed_addr #4 align 2 {
  %2 = getelementptr inbounds nuw i8, ptr %0, i64 40
  %3 = load i8, ptr %2, align 8, !tbaa !20, !range !91, !noundef !92
  %4 = trunc nuw i8 %3 to i1
  %5 = getelementptr inbounds nuw i8, ptr %0, i64 80
  %6 = load ptr, ptr %5, align 8, !tbaa !100
  br i1 %4, label %7, label %8

7:                                                ; preds = %1
  tail call void @_ZN7rocksdb16WBWIIteratorImpl10AdvanceKeyEb(ptr noundef nonnull align 8 dereferenceable(72) %6, i1 noundef zeroext true)
  br label %9

8:                                                ; preds = %1
  tail call void @_ZN7rocksdb16WBWIIteratorImpl7PrevKeyEv(ptr noundef nonnull align 8 dereferenceable(72) %6)
  br label %9

9:                                                ; preds = %8, %7
  ret void
}